; Function Attrs: nofree norecurse nosync nounwind memory(argmem: readwrite) uwtable
define void @Kit_TruthForallSet(ptr noundef captures(none) %0, ptr noundef readonly captures(none) %1, i32 noundef %2, i32 noundef %3) local_unnamed_addr #0 {
  %5 = icmp slt i32 %2, 6
  %6 = add nsw i32 %2, -5
  %7 = shl nuw i32 1, %6
  %spec.select.i = select i1 %5, i32 1, i32 %7
  %8 = icmp sgt i32 %spec.select.i, 0
  br i1 %8, label %select.unfold.preheader.i, label %Kit_TruthCopy.exit

select.unfold.preheader.i:                        ; preds = %4
  %9 = zext nneg i32 %spec.select.i to i64
  br label %select.unfold.i

select.unfold.i:                                  ; preds = %select.unfold.i, %select.unfold.preheader.i
  %indvars.iv.i = phi i64 [ %9, %select.unfold.preheader.i ], [ %indvars.iv.next.i, %select.unfold.i ]
  %indvars.iv.next.i = add nsw i64 %indvars.iv.i, -1
  %10 = getelementptr inbounds nuw i32, ptr %1, i64 %indvars.iv.next.i
  %11 = load i32, ptr %10, align 4, !tbaa !3
  %12 = getelementptr inbounds nuw i32, ptr %0, i64 %indvars.iv.next.i
  store i32 %11, ptr %12, align 4, !tbaa !3
  %13 = icmp samesign ugt i64 %indvars.iv.i, 1
  br i1 %13, label %select.unfold.i, label %Kit_TruthCopy.exit, !llvm.loop !27

Kit_TruthCopy.exit:                               ; preds = %select.unfold.i, %4
  %14 = icmp sgt i32 %2, 0
  br i1 %14, label %.lr.ph, label %._crit_edge

.lr.ph:                                           ; preds = %Kit_TruthCopy.exit, %18
  %.011 = phi i32 [ %19, %18 ], [ 0, %Kit_TruthCopy.exit ]
  %15 = shl nuw i32 1, %.011
  %16 = and i32 %15, %3
  %.not = icmp eq i32 %16, 0
  br i1 %.not, label %18, label %17

17:                                               ; preds = %.lr.ph
  tail call void @Kit_TruthForall(ptr noundef %0, i32 noundef %2, i32 noundef %.011)
  br label %18

18:                                               ; preds = %.lr.ph, %17
  %19 = add nuw nsw i32 %.011, 1
  %exitcond.not = icmp eq i32 %19, %2
  br i1 %exitcond.not, label %._crit_edge, label %.lr.ph, !llvm.loop !127

._crit_edge:                                      ; preds = %18, %Kit_TruthCopy.exit
  ret void
}